
hello_world:     file format elf32-i386


Disassembly of section .init:

08048290 <_init>:
 8048290:	53                   	push   ebx
 8048291:	83 ec 08             	sub    esp,0x8
 8048294:	e8 97 00 00 00       	call   8048330 <__x86.get_pc_thunk.bx>
 8048299:	81 c3 17 14 00 00    	add    ebx,0x1417
 804829f:	8b 83 fc ff ff ff    	mov    eax,DWORD PTR [ebx-0x4]
 80482a5:	85 c0                	test   eax,eax
 80482a7:	74 05                	je     80482ae <_init+0x1e>
 80482a9:	e8 32 00 00 00       	call   80482e0 <__gmon_start__@plt>
 80482ae:	83 c4 08             	add    esp,0x8
 80482b1:	5b                   	pop    ebx
 80482b2:	c3                   	ret

Disassembly of section .plt:

080482c0 <.plt>:
 80482c0:	ff 35 b4 96 04 08    	push   DWORD PTR ds:0x80496b4
 80482c6:	ff 25 b8 96 04 08    	jmp    DWORD PTR ds:0x80496b8
 80482cc:	00 00                	add    BYTE PTR [eax],al
	...

080482d0 <puts@plt>:
 80482d0:	ff 25 bc 96 04 08    	jmp    DWORD PTR ds:0x80496bc
 80482d6:	68 00 00 00 00       	push   0x0
 80482db:	e9 e0 ff ff ff       	jmp    80482c0 <.plt>

080482e0 <__gmon_start__@plt>:
 80482e0:	ff 25 c0 96 04 08    	jmp    DWORD PTR ds:0x80496c0
 80482e6:	68 08 00 00 00       	push   0x8
 80482eb:	e9 d0 ff ff ff       	jmp    80482c0 <.plt>

080482f0 <__libc_start_main@plt>:
 80482f0:	ff 25 c4 96 04 08    	jmp    DWORD PTR ds:0x80496c4
 80482f6:	68 10 00 00 00       	push   0x10
 80482fb:	e9 c0 ff ff ff       	jmp    80482c0 <.plt>

Disassembly of section .text:

08048300 <_start>:
 8048300:	31 ed                	xor    ebp,ebp
 8048302:	5e                   	pop    esi
 8048303:	89 e1                	mov    ecx,esp
 8048305:	83 e4 f0             	and    esp,0xfffffff0
 8048308:	50                   	push   eax
 8048309:	54                   	push   esp
 804830a:	52                   	push   edx
 804830b:	68 90 84 04 08       	push   0x8048490
 8048310:	68 30 84 04 08       	push   0x8048430
 8048315:	51                   	push   ecx
 8048316:	56                   	push   esi
 8048317:	68 fb 83 04 08       	push   0x80483fb
 804831c:	e8 cf ff ff ff       	call   80482f0 <__libc_start_main@plt>
 8048321:	f4                   	hlt
 8048322:	66 90                	xchg   ax,ax
 8048324:	66 90                	xchg   ax,ax
 8048326:	66 90                	xchg   ax,ax
 8048328:	66 90                	xchg   ax,ax
 804832a:	66 90                	xchg   ax,ax
 804832c:	66 90                	xchg   ax,ax
 804832e:	66 90                	xchg   ax,ax

08048330 <__x86.get_pc_thunk.bx>:
 8048330:	8b 1c 24             	mov    ebx,DWORD PTR [esp]
 8048333:	c3                   	ret
 8048334:	66 90                	xchg   ax,ax
 8048336:	66 90                	xchg   ax,ax
 8048338:	66 90                	xchg   ax,ax
 804833a:	66 90                	xchg   ax,ax
 804833c:	66 90                	xchg   ax,ax
 804833e:	66 90                	xchg   ax,ax

08048340 <deregister_tm_clones>:
 8048340:	b8 d3 96 04 08       	mov    eax,0x80496d3
 8048345:	2d d0 96 04 08       	sub    eax,0x80496d0
 804834a:	83 f8 06             	cmp    eax,0x6
 804834d:	76 1a                	jbe    8048369 <deregister_tm_clones+0x29>
 804834f:	b8 00 00 00 00       	mov    eax,0x0
 8048354:	85 c0                	test   eax,eax
 8048356:	74 11                	je     8048369 <deregister_tm_clones+0x29>
 8048358:	55                   	push   ebp
 8048359:	89 e5                	mov    ebp,esp
 804835b:	83 ec 14             	sub    esp,0x14
 804835e:	68 d0 96 04 08       	push   0x80496d0
 8048363:	ff d0                	call   eax
 8048365:	83 c4 10             	add    esp,0x10
 8048368:	c9                   	leave
 8048369:	f3 c3                	repz ret
 804836b:	90                   	nop
 804836c:	8d 74 26 00          	lea    esi,[esi+eiz*1+0x0]

08048370 <register_tm_clones>:
 8048370:	b8 d0 96 04 08       	mov    eax,0x80496d0
 8048375:	2d d0 96 04 08       	sub    eax,0x80496d0
 804837a:	c1 f8 02             	sar    eax,0x2
 804837d:	89 c2                	mov    edx,eax
 804837f:	c1 ea 1f             	shr    edx,0x1f
 8048382:	01 d0                	add    eax,edx
 8048384:	d1 f8                	sar    eax,1
 8048386:	74 1b                	je     80483a3 <register_tm_clones+0x33>
 8048388:	ba 00 00 00 00       	mov    edx,0x0
 804838d:	85 d2                	test   edx,edx
 804838f:	74 12                	je     80483a3 <register_tm_clones+0x33>
 8048391:	55                   	push   ebp
 8048392:	89 e5                	mov    ebp,esp
 8048394:	83 ec 10             	sub    esp,0x10
 8048397:	50                   	push   eax
 8048398:	68 d0 96 04 08       	push   0x80496d0
 804839d:	ff d2                	call   edx
 804839f:	83 c4 10             	add    esp,0x10
 80483a2:	c9                   	leave
 80483a3:	f3 c3                	repz ret
 80483a5:	8d 74 26 00          	lea    esi,[esi+eiz*1+0x0]
 80483a9:	8d bc 27 00 00 00 00 	lea    edi,[edi+eiz*1+0x0]

080483b0 <__do_global_dtors_aux>:
 80483b0:	80 3d d0 96 04 08 00 	cmp    BYTE PTR ds:0x80496d0,0x0
 80483b7:	75 13                	jne    80483cc <__do_global_dtors_aux+0x1c>
 80483b9:	55                   	push   ebp
 80483ba:	89 e5                	mov    ebp,esp
 80483bc:	83 ec 08             	sub    esp,0x8
 80483bf:	e8 7c ff ff ff       	call   8048340 <deregister_tm_clones>
 80483c4:	c6 05 d0 96 04 08 01 	mov    BYTE PTR ds:0x80496d0,0x1
 80483cb:	c9                   	leave
 80483cc:	f3 c3                	repz ret
 80483ce:	66 90                	xchg   ax,ax

080483d0 <frame_dummy>:
 80483d0:	b8 c0 95 04 08       	mov    eax,0x80495c0
 80483d5:	8b 10                	mov    edx,DWORD PTR [eax]
 80483d7:	85 d2                	test   edx,edx
 80483d9:	75 05                	jne    80483e0 <frame_dummy+0x10>
 80483db:	eb 93                	jmp    8048370 <register_tm_clones>
 80483dd:	8d 76 00             	lea    esi,[esi+0x0]
 80483e0:	ba 00 00 00 00       	mov    edx,0x0
 80483e5:	85 d2                	test   edx,edx
 80483e7:	74 f2                	je     80483db <frame_dummy+0xb>
 80483e9:	55                   	push   ebp
 80483ea:	89 e5                	mov    ebp,esp
 80483ec:	83 ec 14             	sub    esp,0x14
 80483ef:	50                   	push   eax
 80483f0:	ff d2                	call   edx
 80483f2:	83 c4 10             	add    esp,0x10
 80483f5:	c9                   	leave
 80483f6:	e9 75 ff ff ff       	jmp    8048370 <register_tm_clones>

080483fb <main>:
 80483fb:	8d 4c 24 04          	lea    ecx,[esp+0x4]
 80483ff:	83 e4 f0             	and    esp,0xfffffff0
 8048402:	ff 71 fc             	push   DWORD PTR [ecx-0x4]
 8048405:	55                   	push   ebp
 8048406:	89 e5                	mov    ebp,esp
 8048408:	51                   	push   ecx
 8048409:	83 ec 04             	sub    esp,0x4
 804840c:	83 ec 0c             	sub    esp,0xc
 804840f:	68 b0 84 04 08       	push   0x80484b0
 8048414:	e8 b7 fe ff ff       	call   80482d0 <puts@plt>
 8048419:	83 c4 10             	add    esp,0x10
 804841c:	b8 00 00 00 00       	mov    eax,0x0
 8048421:	8b 4d fc             	mov    ecx,DWORD PTR [ebp-0x4]
 8048424:	c9                   	leave
 8048425:	8d 61 fc             	lea    esp,[ecx-0x4]
 8048428:	c3                   	ret
 8048429:	66 90                	xchg   ax,ax
 804842b:	66 90                	xchg   ax,ax
 804842d:	66 90                	xchg   ax,ax
 804842f:	90                   	nop

08048430 <__libc_csu_init>:
 8048430:	55                   	push   ebp
 8048431:	57                   	push   edi
 8048432:	56                   	push   esi
 8048433:	53                   	push   ebx
 8048434:	e8 f7 fe ff ff       	call   8048330 <__x86.get_pc_thunk.bx>
 8048439:	81 c3 77 12 00 00    	add    ebx,0x1277
 804843f:	83 ec 0c             	sub    esp,0xc
 8048442:	8b 6c 24 20          	mov    ebp,DWORD PTR [esp+0x20]
 8048446:	8d b3 0c ff ff ff    	lea    esi,[ebx-0xf4]
 804844c:	e8 3f fe ff ff       	call   8048290 <_init>
 8048451:	8d 83 08 ff ff ff    	lea    eax,[ebx-0xf8]
 8048457:	29 c6                	sub    esi,eax
 8048459:	c1 fe 02             	sar    esi,0x2
 804845c:	85 f6                	test   esi,esi
 804845e:	74 25                	je     8048485 <__libc_csu_init+0x55>
 8048460:	31 ff                	xor    edi,edi
 8048462:	8d b6 00 00 00 00    	lea    esi,[esi+0x0]
 8048468:	83 ec 04             	sub    esp,0x4
 804846b:	ff 74 24 2c          	push   DWORD PTR [esp+0x2c]
 804846f:	ff 74 24 2c          	push   DWORD PTR [esp+0x2c]
 8048473:	55                   	push   ebp
 8048474:	ff 94 bb 08 ff ff ff 	call   DWORD PTR [ebx+edi*4-0xf8]
 804847b:	83 c7 01             	add    edi,0x1
 804847e:	83 c4 10             	add    esp,0x10
 8048481:	39 f7                	cmp    edi,esi
 8048483:	75 e3                	jne    8048468 <__libc_csu_init+0x38>
 8048485:	83 c4 0c             	add    esp,0xc
 8048488:	5b                   	pop    ebx
 8048489:	5e                   	pop    esi
 804848a:	5f                   	pop    edi
 804848b:	5d                   	pop    ebp
 804848c:	c3                   	ret
 804848d:	8d 76 00             	lea    esi,[esi+0x0]

08048490 <__libc_csu_fini>:
 8048490:	f3 c3                	repz ret

Disassembly of section .fini:

08048494 <_fini>:
 8048494:	53                   	push   ebx
 8048495:	83 ec 08             	sub    esp,0x8
 8048498:	e8 93 fe ff ff       	call   8048330 <__x86.get_pc_thunk.bx>
 804849d:	81 c3 13 12 00 00    	add    ebx,0x1213
 80484a3:	83 c4 08             	add    esp,0x8
 80484a6:	5b                   	pop    ebx
 80484a7:	c3                   	ret
